; Function Attrs: mustprogress nounwind uwtable
define hidden void @_ZN18G1HeapRegionRemSetC2EP12G1HeapRegionP22G1CardSetConfiguration(ptr noundef nonnull align 8 dereferenceable(84) %0, ptr noundef %1, ptr noundef %2) unnamed_addr #0 align 2 {
  tail call void @_ZN13G1CodeRootSetC1Ev(ptr noundef nonnull align 8 dereferenceable(8) %0) #7
  %4 = getelementptr inbounds i8, ptr %0, i64 8
  %5 = load ptr, ptr @_ZN8Universe14_collectedHeapE, align 8
  %6 = getelementptr inbounds i8, ptr %5, i64 1304
  tail call void @_ZN22G1CardSetMemoryManagerC1EP22G1CardSetConfigurationP24G1MonotonicArenaFreePool(ptr noundef nonnull align 8 dereferenceable(24) %4, ptr noundef %2, ptr noundef nonnull %6) #7
  %7 = getelementptr inbounds i8, ptr %0, i64 32
  tail call void @_ZN9G1CardSetC1EP22G1CardSetConfigurationP22G1CardSetMemoryManager(ptr noundef nonnull align 8 dereferenceable(40) %7, ptr noundef %2, ptr noundef nonnull %4) #7
  %8 = getelementptr inbounds i8, ptr %0, i64 72
  store ptr %1, ptr %8, align 8
  %9 = getelementptr inbounds i8, ptr %0, i64 80
  store i32 0, ptr %9, align 8
  ret void
}